target datalayout = "e-m:e-p270:32:32-p271:32:32-p272:64:64-i64:64-i128:128-f80:128-n8:16:32:64-S128"
target triple = "x86_64-pc-linux-gnu"

%struct.PyWideStringList = type { i64, ptr }

@.str.2 = private unnamed_addr constant [3 x i32] [i32 45, i32 109, i32 0], align 4
@.str.3 = private unnamed_addr constant [3 x i32] [i32 45, i32 99, i32 0], align 4

; Function Attrs: nounwind uwtable
define hidden i32 @_PyPathConfig_ComputeSysPath0(ptr noundef %0, ptr noundef %1) #0 {
  %3 = alloca i32, align 4
  %4 = alloca ptr, align 8
  %5 = alloca ptr, align 8
  %6 = alloca ptr, align 8
  %7 = alloca i32, align 4
  %8 = alloca i32, align 4
  %9 = alloca ptr, align 8
  %10 = alloca i64, align 8
  %11 = alloca [4096 x i32], align 16
  %12 = alloca i32, align 4
  %13 = alloca [4097 x i32], align 16
  %14 = alloca i32, align 4
  %15 = alloca [8193 x i32], align 16
  %16 = alloca ptr, align 8
  %17 = alloca ptr, align 8
  %18 = alloca ptr, align 8
  store ptr %0, ptr %4, align 8, !tbaa !49
  store ptr %1, ptr %5, align 8, !tbaa !50
  %19 = load ptr, ptr %4, align 8, !tbaa !49
  %20 = getelementptr inbounds nuw %struct.PyWideStringList, ptr %19, i32 0, i32 0
  %21 = load i64, ptr %20, align 8, !tbaa !52
  %22 = icmp eq i64 %21, 0
  br i1 %22, label %23, label %24

23:                                               ; preds = %2
  store i32 0, ptr %3, align 4
  br label %144

24:                                               ; preds = %2
  call void @llvm.lifetime.start.p0(i64 8, ptr %6) #9
  %25 = load ptr, ptr %4, align 8, !tbaa !49
  %26 = getelementptr inbounds nuw %struct.PyWideStringList, ptr %25, i32 0, i32 1
  %27 = load ptr, ptr %26, align 8, !tbaa !53
  %28 = getelementptr ptr, ptr %27, i64 0
  %29 = load ptr, ptr %28, align 8, !tbaa !41
  store ptr %29, ptr %6, align 8, !tbaa !41
  call void @llvm.lifetime.start.p0(i64 4, ptr %7) #9
  %30 = load ptr, ptr %6, align 8, !tbaa !41
  %31 = call i32 @wcscmp(ptr noundef %30, ptr noundef @.str.2) #10
  %32 = icmp eq i32 %31, 0
  %33 = zext i1 %32 to i32
  store i32 %33, ptr %7, align 4, !tbaa !27
  call void @llvm.lifetime.start.p0(i64 4, ptr %8) #9
  %34 = load i32, ptr %7, align 4, !tbaa !27
  %35 = icmp ne i32 %34, 0
  br i1 %35, label %40, label %36

36:                                               ; preds = %24
  %37 = load ptr, ptr %6, align 8, !tbaa !41
  %38 = call i32 @wcscmp(ptr noundef %37, ptr noundef @.str.3) #10
  %39 = icmp ne i32 %38, 0
  br label %40

40:                                               ; preds = %36, %24
  %41 = phi i1 [ false, %24 ], [ %39, %36 ]
  %42 = zext i1 %41 to i32
  store i32 %42, ptr %8, align 4, !tbaa !27
  call void @llvm.lifetime.start.p0(i64 8, ptr %9) #9
  %43 = load ptr, ptr %6, align 8, !tbaa !41
  store ptr %43, ptr %9, align 8, !tbaa !41
  call void @llvm.lifetime.start.p0(i64 8, ptr %10) #9
  store i64 0, ptr %10, align 8, !tbaa !38
  call void @llvm.lifetime.start.p0(i64 16384, ptr %11) #9
  %44 = load i32, ptr %7, align 4, !tbaa !27
  %45 = icmp ne i32 %44, 0
  br i1 %45, label %46, label %55

46:                                               ; preds = %40
  %47 = getelementptr inbounds [4096 x i32], ptr %11, i64 0, i64 0
  %48 = call ptr @_Py_wgetcwd(ptr noundef %47, i64 noundef 4096)
  %49 = icmp ne ptr %48, null
  br i1 %49, label %51, label %50

50:                                               ; preds = %46
  store i32 0, ptr %3, align 4
  store i32 1, ptr %12, align 4
  br label %143

51:                                               ; preds = %46
  %52 = getelementptr inbounds [4096 x i32], ptr %11, i64 0, i64 0
  store ptr %52, ptr %9, align 8, !tbaa !41
  %53 = load ptr, ptr %9, align 8, !tbaa !41
  %54 = call i64 @wcslen(ptr noundef %53) #10
  store i64 %54, ptr %10, align 8, !tbaa !38
  br label %55

55:                                               ; preds = %51, %40
  call void @llvm.lifetime.start.p0(i64 16388, ptr %13) #9
  call void @llvm.lifetime.start.p0(i64 4, ptr %14) #9
  store i32 0, ptr %14, align 4, !tbaa !27
  call void @llvm.lifetime.start.p0(i64 32772, ptr %15) #9
  %56 = load i32, ptr %8, align 4, !tbaa !27
  %57 = icmp ne i32 %56, 0
  br i1 %57, label %58, label %62

58:                                               ; preds = %55
  %59 = load ptr, ptr %9, align 8, !tbaa !41
  %60 = getelementptr inbounds [4097 x i32], ptr %13, i64 0, i64 0
  %61 = call i32 @_Py_wreadlink(ptr noundef %59, ptr noundef %60, i64 noundef 4097)
  store i32 %61, ptr %14, align 4, !tbaa !27
  br label %62

62:                                               ; preds = %58, %55
  %63 = load i32, ptr %14, align 4, !tbaa !27
  %64 = icmp sgt i32 %63, 0
  br i1 %64, label %65, label %102

65:                                               ; preds = %62
  %66 = load i32, ptr %14, align 4, !tbaa !27
  %67 = sext i32 %66 to i64
  %68 = getelementptr [4097 x i32], ptr %13, i64 0, i64 %67
  store i32 0, ptr %68, align 4, !tbaa !27
  %69 = getelementptr [4097 x i32], ptr %13, i64 0, i64 0
  %70 = load i32, ptr %69, align 16, !tbaa !27
  %71 = icmp eq i32 %70, 47
  br i1 %71, label %72, label %74

72:                                               ; preds = %65
  %73 = getelementptr inbounds [4097 x i32], ptr %13, i64 0, i64 0
  store ptr %73, ptr %9, align 8, !tbaa !41
  br label %101

74:                                               ; preds = %65
  %75 = getelementptr inbounds [4097 x i32], ptr %13, i64 0, i64 0
  %76 = call ptr @wcschr(ptr noundef %75, i32 noundef 47) #10
  %77 = icmp eq ptr %76, null
  br i1 %77, label %78, label %79

78:                                               ; preds = %74
  br label %100

79:                                               ; preds = %74
  call void @llvm.lifetime.start.p0(i64 8, ptr %16) #9
  %80 = load ptr, ptr %9, align 8, !tbaa !41
  %81 = call ptr @wcsrchr(ptr noundef %80, i32 noundef 47) #10
  store ptr %81, ptr %16, align 8, !tbaa !41
  %82 = load ptr, ptr %16, align 8, !tbaa !41
  %83 = icmp eq ptr %82, null
  br i1 %83, label %84, label %86

84:                                               ; preds = %79
  %85 = getelementptr inbounds [4097 x i32], ptr %13, i64 0, i64 0
  store ptr %85, ptr %9, align 8, !tbaa !41
  br label %99

86:                                               ; preds = %79
  %87 = getelementptr inbounds [8193 x i32], ptr %15, i64 0, i64 0
  %88 = load ptr, ptr %9, align 8, !tbaa !41
  %89 = call ptr @wcsncpy(ptr noundef %87, ptr noundef %88, i64 noundef 4096) #9
  %90 = getelementptr inbounds [8193 x i32], ptr %15, i64 0, i64 0
  %91 = call ptr @wcsrchr(ptr noundef %90, i32 noundef 47) #10
  store ptr %91, ptr %16, align 8, !tbaa !41
  %92 = load ptr, ptr %16, align 8, !tbaa !41
  %93 = getelementptr i32, ptr %92, i64 1
  %94 = getelementptr inbounds [4097 x i32], ptr %13, i64 0, i64 0
  %95 = call ptr @wcsncpy(ptr noundef %93, ptr noundef %94, i64 noundef 4096) #9
  %96 = load ptr, ptr %16, align 8, !tbaa !41
  %97 = getelementptr i32, ptr %96, i64 4097
  store i32 0, ptr %97, align 4, !tbaa !27
  %98 = getelementptr inbounds [8193 x i32], ptr %15, i64 0, i64 0
  store ptr %98, ptr %9, align 8, !tbaa !41
  br label %99

99:                                               ; preds = %86, %84
  call void @llvm.lifetime.end.p0(i64 8, ptr %16) #9
  br label %100

100:                                              ; preds = %99, %78
  br label %101

101:                                              ; preds = %100, %72
  br label %102

102:                                              ; preds = %101, %62
  call void @llvm.lifetime.start.p0(i64 8, ptr %17) #9
  store ptr null, ptr %17, align 8, !tbaa !41
  %103 = load i32, ptr %8, align 4, !tbaa !27
  %104 = icmp ne i32 %103, 0
  br i1 %104, label %105, label %115

105:                                              ; preds = %102
  %106 = load ptr, ptr %9, align 8, !tbaa !41
  %107 = getelementptr inbounds [4096 x i32], ptr %11, i64 0, i64 0
  %108 = call ptr @_Py_wrealpath(ptr noundef %106, ptr noundef %107, i64 noundef 4096)
  %109 = icmp ne ptr %108, null
  br i1 %109, label %110, label %112

110:                                              ; preds = %105
  %111 = getelementptr inbounds [4096 x i32], ptr %11, i64 0, i64 0
  store ptr %111, ptr %9, align 8, !tbaa !41
  br label %112

112:                                              ; preds = %110, %105
  %113 = load ptr, ptr %9, align 8, !tbaa !41
  %114 = call ptr @wcsrchr(ptr noundef %113, i32 noundef 47) #10
  store ptr %114, ptr %17, align 8, !tbaa !41
  br label %115

115:                                              ; preds = %112, %102
  %116 = load ptr, ptr %17, align 8, !tbaa !41
  %117 = icmp ne ptr %116, null
  br i1 %117, label %118, label %132

118:                                              ; preds = %115
  %119 = load ptr, ptr %17, align 8, !tbaa !41
  %120 = getelementptr i32, ptr %119, i64 1
  %121 = load ptr, ptr %9, align 8, !tbaa !41
  %122 = ptrtoint ptr %120 to i64
  %123 = ptrtoint ptr %121 to i64
  %124 = sub i64 %122, %123
  %125 = sdiv exact i64 %124, 4
  store i64 %125, ptr %10, align 8, !tbaa !38
  %126 = load i64, ptr %10, align 8, !tbaa !38
  %127 = icmp sgt i64 %126, 1
  br i1 %127, label %128, label %131

128:                                              ; preds = %118
  %129 = load i64, ptr %10, align 8, !tbaa !38
  %130 = add i64 %129, -1
  store i64 %130, ptr %10, align 8, !tbaa !38
  br label %131

131:                                              ; preds = %128, %118
  br label %132

132:                                              ; preds = %131, %115
  call void @llvm.lifetime.start.p0(i64 8, ptr %18) #9
  %133 = load ptr, ptr %9, align 8, !tbaa !41
  %134 = load i64, ptr %10, align 8, !tbaa !38
  %135 = call ptr @PyUnicode_FromWideChar(ptr noundef %133, i64 noundef %134)
  store ptr %135, ptr %18, align 8, !tbaa !54
  %136 = load ptr, ptr %18, align 8, !tbaa !54
  %137 = icmp eq ptr %136, null
  br i1 %137, label %138, label %139

138:                                              ; preds = %132
  store i32 -1, ptr %3, align 4
  store i32 1, ptr %12, align 4
  br label %142

139:                                              ; preds = %132
  %140 = load ptr, ptr %18, align 8, !tbaa !54
  %141 = load ptr, ptr %5, align 8, !tbaa !50
  store ptr %140, ptr %141, align 8, !tbaa !54
  store i32 1, ptr %3, align 4
  store i32 1, ptr %12, align 4
  br label %142

142:                                              ; preds = %139, %138
  call void @llvm.lifetime.end.p0(i64 8, ptr %18) #9
  call void @llvm.lifetime.end.p0(i64 8, ptr %17) #9
  call void @llvm.lifetime.end.p0(i64 32772, ptr %15) #9
  call void @llvm.lifetime.end.p0(i64 4, ptr %14) #9
  call void @llvm.lifetime.end.p0(i64 16388, ptr %13) #9
  br label %143

143:                                              ; preds = %142, %50
  call void @llvm.lifetime.end.p0(i64 16384, ptr %11) #9
  call void @llvm.lifetime.end.p0(i64 8, ptr %10) #9
  call void @llvm.lifetime.end.p0(i64 8, ptr %9) #9
  call void @llvm.lifetime.end.p0(i64 4, ptr %8) #9
  call void @llvm.lifetime.end.p0(i64 4, ptr %7) #9
  call void @llvm.lifetime.end.p0(i64 8, ptr %6) #9
  br label %144

144:                                              ; preds = %143, %23
  %145 = load i32, ptr %3, align 4
  ret i32 %145
}