; Function Attrs: nounwind uwtable
define hidden range(i32 -1, 2) i32 @_PyPathConfig_ComputeSysPath0(ptr noundef readonly captures(none) %0, ptr noundef writeonly captures(none) %1) local_unnamed_addr #1 {
  %3 = alloca [4096 x i32], align 16
  %4 = alloca [4097 x i32], align 16
  %5 = alloca [8193 x i32], align 16
  %6 = load i64, ptr %0, align 8, !tbaa !46
  %7 = icmp eq i64 %6, 0
  br i1 %7, label %55, label %8

8:                                                ; preds = %2
  %9 = getelementptr inbounds nuw i8, ptr %0, i64 8
  %10 = load ptr, ptr %9, align 8, !tbaa !47
  %11 = load ptr, ptr %10, align 8, !tbaa !38
  %12 = tail call i32 @wcscmp(ptr noundef %11, ptr noundef nonnull @.str.2) #13
  %13 = icmp eq i32 %12, 0
  br i1 %13, label %14, label %17

14:                                               ; preds = %8
  call void @llvm.lifetime.start.p0(i64 16384, ptr nonnull %3) #12
  %15 = call ptr @_Py_wgetcwd(ptr noundef nonnull %3, i64 noundef 4096) #12
  %.not = icmp eq ptr %15, null
  br i1 %.not, label %54, label %.thread43

.thread43:                                        ; preds = %14
  %16 = call i64 @wcslen(ptr noundef nonnull %3) #13
  call void @llvm.lifetime.start.p0(i64 16388, ptr nonnull %4) #12
  call void @llvm.lifetime.start.p0(i64 32772, ptr nonnull %5) #12
  br label %.thread61

17:                                               ; preds = %8
  %18 = tail call i32 @wcscmp(ptr noundef %11, ptr noundef nonnull @.str.3) #13
  %.not67 = icmp eq i32 %18, 0
  call void @llvm.lifetime.start.p0(i64 16384, ptr nonnull %3) #12
  call void @llvm.lifetime.start.p0(i64 16388, ptr nonnull %4) #12
  call void @llvm.lifetime.start.p0(i64 32772, ptr nonnull %5) #12
  br i1 %.not67, label %.thread61, label %19

19:                                               ; preds = %17
  %20 = call i32 @_Py_wreadlink(ptr noundef %11, ptr noundef nonnull %4, i64 noundef 4097) #12
  %21 = icmp sgt i32 %20, 0
  br i1 %21, label %22, label %39

22:                                               ; preds = %19
  %23 = zext nneg i32 %20 to i64
  %24 = getelementptr [4097 x i32], ptr %4, i64 0, i64 %23
  store i32 0, ptr %24, align 4, !tbaa !29
  %25 = load i32, ptr %4, align 16, !tbaa !29
  %26 = icmp eq i32 %25, 47
  br i1 %26, label %39, label %27

27:                                               ; preds = %22
  %28 = call ptr @wcschr(ptr noundef nonnull %4, i32 noundef 47) #13
  %29 = icmp eq ptr %28, null
  br i1 %29, label %39, label %30

30:                                               ; preds = %27
  %31 = call ptr @wcsrchr(ptr noundef %11, i32 noundef 47) #13
  %32 = icmp eq ptr %31, null
  br i1 %32, label %39, label %33

33:                                               ; preds = %30
  %34 = call ptr @wcsncpy(ptr noundef nonnull %5, ptr noundef %11, i64 noundef 4096) #12
  %35 = call ptr @wcsrchr(ptr noundef nonnull %5, i32 noundef 47) #13
  %36 = getelementptr i8, ptr %35, i64 4
  %37 = call ptr @wcsncpy(ptr noundef %36, ptr noundef nonnull %4, i64 noundef 4096) #12
  %38 = getelementptr i8, ptr %35, i64 16388
  store i32 0, ptr %38, align 4, !tbaa !29
  br label %39

39:                                               ; preds = %30, %33, %22, %19, %27
  %.135.ph = phi ptr [ %4, %30 ], [ %5, %33 ], [ %4, %22 ], [ %11, %19 ], [ %11, %27 ]
  %40 = call ptr @_Py_wrealpath(ptr noundef %.135.ph, ptr noundef nonnull %3, i64 noundef 4096) #12
  %.not40 = icmp eq ptr %40, null
  %spec.select = select i1 %.not40, ptr %.135.ph, ptr %3
  %41 = call ptr @wcsrchr(ptr noundef %spec.select, i32 noundef 47) #13
  %.not41 = icmp eq ptr %41, null
  br i1 %.not41, label %.thread61, label %42

42:                                               ; preds = %39
  %43 = getelementptr i8, ptr %41, i64 4
  %44 = ptrtoint ptr %43 to i64
  %45 = ptrtoint ptr %spec.select to i64
  %46 = sub i64 %44, %45
  %47 = ashr exact i64 %46, 2
  %48 = icmp sgt i64 %47, 1
  %49 = sext i1 %48 to i64
  %spec.select42 = add nsw i64 %47, %49
  br label %.thread61

.thread61:                                        ; preds = %.thread43, %17, %42, %39
  %.366 = phi ptr [ %spec.select, %39 ], [ %spec.select, %42 ], [ %11, %17 ], [ %3, %.thread43 ]
  %.133 = phi i64 [ 0, %39 ], [ %spec.select42, %42 ], [ 0, %17 ], [ %16, %.thread43 ]
  %50 = call ptr @PyUnicode_FromWideChar(ptr noundef %.366, i64 noundef %.133) #12
  %51 = icmp eq ptr %50, null
  br i1 %51, label %53, label %52

52:                                               ; preds = %.thread61
  store ptr %50, ptr %1, align 8, !tbaa !48
  br label %53

53:                                               ; preds = %.thread61, %52
  %.2 = phi i32 [ 1, %52 ], [ -1, %.thread61 ]
  call void @llvm.lifetime.end.p0(i64 32772, ptr nonnull %5) #12
  call void @llvm.lifetime.end.p0(i64 16388, ptr nonnull %4) #12
  br label %54

54:                                               ; preds = %14, %53
  %.1 = phi i32 [ %.2, %53 ], [ 0, %14 ]
  call void @llvm.lifetime.end.p0(i64 16384, ptr nonnull %3) #12
  br label %55

55:                                               ; preds = %2, %54
  %.0 = phi i32 [ %.1, %54 ], [ 0, %2 ]
  ret i32 %.0
}